; Function Attrs: inlinehint mustprogress nounwind uwtable
define internal void @_ZN4absl12_GLOBAL__N_137CordzUpdateTest_AppendSmallArray_TestD0Ev(ptr noundef nonnull align 8 dereferenceable(48) initializes((0, 8), (16, 24)) %0) unnamed_addr #16 align 2 personality ptr @__gxx_personality_v0 {
  store ptr getelementptr inbounds nuw inrange(-16, 48) (i8, ptr @_ZTVN4absl12_GLOBAL__N_115CordzUpdateTestE, i64 16), ptr %0, align 8, !tbaa !18
  %2 = getelementptr inbounds nuw i8, ptr %0, i64 16
  store ptr getelementptr inbounds nuw inrange(-16, 16) (i8, ptr @_ZTVN4absl12_GLOBAL__N_115CordzUpdateTestE, i64 80), ptr %2, align 8, !tbaa !18
  %3 = getelementptr inbounds nuw i8, ptr %0, i64 32
  %4 = load i8, ptr %3, align 8, !tbaa !24
  %5 = and i8 %4, 1
  %.not.i.i = icmp eq i8 %5, 0
  br i1 %.not.i.i, label %_ZN4absl4CordD2Ev.exit.i, label %6

6:                                                ; preds = %1
  invoke void @_ZN4absl4Cord15DestroyCordSlowEv(ptr noundef nonnull align 8 dereferenceable(16) %3)
          to label %_ZN4absl4CordD2Ev.exit.i unwind label %7

7:                                                ; preds = %6
  %8 = landingpad { ptr, i32 }
          catch ptr null
  %9 = extractvalue { ptr, i32 } %8, 0
  tail call void @__clang_call_terminate(ptr %9) #37
  unreachable

_ZN4absl4CordD2Ev.exit.i:                         ; preds = %6, %1
  %10 = getelementptr inbounds nuw i8, ptr %0, i64 24
  %11 = load i32, ptr %10, align 8, !tbaa !100
  invoke void @_ZN4absl13cord_internal23set_cordz_mean_intervalEi(i32 noundef %11)
          to label %12 unwind label %15

12:                                               ; preds = %_ZN4absl4CordD2Ev.exit.i
  %13 = load i32, ptr %10, align 8, !tbaa !100
  %14 = sext i32 %13 to i64
  invoke void @_ZN4absl13cord_internal33cordz_set_next_sample_for_testingEl(i64 noundef %14)
          to label %_ZN4absl12_GLOBAL__N_115CordzUpdateTestD2Ev.exit unwind label %15

15:                                               ; preds = %12, %_ZN4absl4CordD2Ev.exit.i
  %16 = landingpad { ptr, i32 }
          catch ptr null
  %17 = extractvalue { ptr, i32 } %16, 0
  tail call void @__clang_call_terminate(ptr %17) #37
  unreachable

_ZN4absl12_GLOBAL__N_115CordzUpdateTestD2Ev.exit: ; preds = %12
  tail call void @_ZN7testing4TestD2Ev(ptr noundef nonnull align 8 dereferenceable(48) %0) #17
  tail call void @_ZdlPvm(ptr noundef nonnull %0, i64 noundef 48) #36
  ret void
}